target datalayout = "e-m:e-p270:32:32-p271:32:32-p272:64:64-i64:64-i128:128-f80:128-n8:16:32:64-S128"
target triple = "x86_64-pc-linux-gnu"

%"class.arrow::Status" = type { ptr }
%"class.arrow::(anonymous namespace)::ScalarEqualsVisitor" = type <{ ptr, %"class.arrow::EqualOptions", i8, i8, [6 x i8] }>
%"class.arrow::EqualOptions" = type { double, i8, i8, ptr }
%"class.std::enable_shared_from_this" = type { %"class.std::weak_ptr" }
%"class.std::weak_ptr" = type { %"class.std::__weak_ptr" }
%"class.std::__weak_ptr" = type { ptr, %"class.std::__weak_count" }
%"class.std::__weak_count" = type { ptr }
%"class.std::shared_ptr.7" = type { %"class.std::__shared_ptr.8" }
%"class.std::__shared_ptr.8" = type { ptr, %"class.std::__shared_count" }
%"class.std::__shared_count" = type { ptr }
%"class.std::__cxx11::basic_string" = type { %"struct.std::__cxx11::basic_string<char>::_Alloc_hider", i64, %union.anon }
%"struct.std::__cxx11::basic_string<char>::_Alloc_hider" = type { ptr }
%union.anon = type { i64, [8 x i8] }
%"struct.arrow::Status::State" = type { i8, i8, %"class.std::__cxx11::basic_string", %"class.std::shared_ptr.344" }
%"class.std::shared_ptr.344" = type { %"class.std::__shared_ptr.345" }
%"class.std::__shared_ptr.345" = type { ptr, %"class.std::__shared_count" }
%"struct.arrow::ArrayData" = type { %"class.std::shared_ptr.7", i64, %"struct.std::atomic.39", i64, %"class.std::vector.41", %"class.std::vector.46", %"class.std::shared_ptr", %"class.std::shared_ptr.51" }
%"struct.std::atomic.39" = type { %"struct.std::__atomic_base.40" }
%"struct.std::__atomic_base.40" = type { i64 }
%"class.std::vector.41" = type { %"struct.std::_Vector_base.42" }
%"struct.std::_Vector_base.42" = type { %"struct.std::_Vector_base<std::shared_ptr<arrow::Buffer>, std::allocator<std::shared_ptr<arrow::Buffer>>>::_Vector_impl" }
%"struct.std::_Vector_base<std::shared_ptr<arrow::Buffer>, std::allocator<std::shared_ptr<arrow::Buffer>>>::_Vector_impl" = type { %"struct.std::_Vector_base<std::shared_ptr<arrow::Buffer>, std::allocator<std::shared_ptr<arrow::Buffer>>>::_Vector_impl_data" }
%"struct.std::_Vector_base<std::shared_ptr<arrow::Buffer>, std::allocator<std::shared_ptr<arrow::Buffer>>>::_Vector_impl_data" = type { ptr, ptr, ptr }
%"class.std::vector.46" = type { %"struct.std::_Vector_base.47" }
%"struct.std::_Vector_base.47" = type { %"struct.std::_Vector_base<std::shared_ptr<arrow::ArrayData>, std::allocator<std::shared_ptr<arrow::ArrayData>>>::_Vector_impl" }
%"struct.std::_Vector_base<std::shared_ptr<arrow::ArrayData>, std::allocator<std::shared_ptr<arrow::ArrayData>>>::_Vector_impl" = type { %"struct.std::_Vector_base<std::shared_ptr<arrow::ArrayData>, std::allocator<std::shared_ptr<arrow::ArrayData>>>::_Vector_impl_data" }
%"struct.std::_Vector_base<std::shared_ptr<arrow::ArrayData>, std::allocator<std::shared_ptr<arrow::ArrayData>>>::_Vector_impl_data" = type { ptr, ptr, ptr }
%"class.std::shared_ptr" = type { %"class.std::__shared_ptr" }
%"class.std::__shared_ptr" = type { ptr, %"class.std::__shared_count" }
%"class.std::shared_ptr.51" = type { %"class.std::__shared_ptr.52" }
%"class.std::__shared_ptr.52" = type { ptr, %"class.std::__shared_count" }
%"class.arrow::Array" = type { ptr, %"class.std::shared_ptr", ptr }
%"class.std::shared_ptr.243" = type { %"class.std::__shared_ptr.244" }
%"class.std::__shared_ptr.244" = type { ptr, %"class.std::__shared_count" }
%"struct.arrow::Scalar.base" = type <{ ptr, %"class.std::enable_shared_from_this", %"class.std::shared_ptr.7", i8 }>
%"struct.arrow::BaseListScalar" = type { %"struct.arrow::Scalar.base", %"class.std::shared_ptr.243" }

; Function Attrs: mustprogress nounwind uwtable
define linkonce_odr noundef ptr @_ZNKSt12__shared_ptrIN5arrow9ArrayDataELN9__gnu_cxx12_Lock_policyE2EE3getEv(ptr noundef nonnull align 8 dereferenceable(16) %0) #0 comdat align 2 {
  %2 = alloca ptr, align 8
  store ptr %0, ptr %2, align 8, !tbaa !957
  %3 = load ptr, ptr %2, align 8
  %4 = getelementptr inbounds nuw %"class.std::__shared_ptr", ptr %3, i32 0, i32 0
  %5 = load ptr, ptr %4, align 8, !tbaa !959
  ret ptr %5
}

; Function Attrs: mustprogress nounwind uwtable
define linkonce_odr noundef ptr @_ZNKSt19__shared_ptr_accessIN5arrow9ArrayDataELN9__gnu_cxx12_Lock_policyE2ELb0ELb0EE6_M_getEv(ptr noundef nonnull align 1 dereferenceable(1) %0) #0 comdat align 2 {
  %2 = alloca ptr, align 8
  store ptr %0, ptr %2, align 8, !tbaa !168
  %3 = load ptr, ptr %2, align 8
  %4 = call noundef ptr @_ZNKSt12__shared_ptrIN5arrow9ArrayDataELN9__gnu_cxx12_Lock_policyE2EE3getEv(ptr noundef nonnull align 8 dereferenceable(16) %3) #20
  ret ptr %4
}

; Function Attrs: mustprogress nounwind uwtable
define linkonce_odr void @_ZN5arrow4util18EqualityComparableINS_6StatusEED2Ev(ptr noundef nonnull align 1 dereferenceable(1) %0) unnamed_addr #0 comdat align 2 {
  %2 = alloca ptr, align 8
  store ptr %0, ptr %2, align 8, !tbaa !1165
  ret void
}

; Function Attrs: mustprogress nounwind uwtable
define linkonce_odr void @_ZN5arrow4util19ToStringOstreamableINS_6StatusEED2Ev(ptr noundef nonnull align 1 dereferenceable(1) %0) unnamed_addr #0 comdat align 2 {
  %2 = alloca ptr, align 8
  store ptr %0, ptr %2, align 8, !tbaa !1163
  ret void
}

; Function Attrs: mustprogress nounwind uwtable
define linkonce_odr noundef ptr @_ZNKSt19__shared_ptr_accessIN5arrow9ArrayDataELN9__gnu_cxx12_Lock_policyE2ELb0ELb0EEptEv(ptr noundef nonnull align 1 dereferenceable(1) %0) #0 comdat align 2 {
  %2 = alloca ptr, align 8
  store ptr %0, ptr %2, align 8, !tbaa !168
  %3 = load ptr, ptr %2, align 8
  %4 = call noundef ptr @_ZNKSt19__shared_ptr_accessIN5arrow9ArrayDataELN9__gnu_cxx12_Lock_policyE2ELb0ELb0EE6_M_getEv(ptr noundef nonnull align 1 dereferenceable(1) %3) #20
  ret ptr %4
}

; Function Attrs: mustprogress nounwind uwtable
define linkonce_odr noundef ptr @_ZNKSt12__shared_ptrIN5arrow5ArrayELN9__gnu_cxx12_Lock_policyE2EE3getEv(ptr noundef nonnull align 8 dereferenceable(16) %0) #0 comdat align 2 {
  %2 = alloca ptr, align 8
  store ptr %0, ptr %2, align 8, !tbaa !1145
  %3 = load ptr, ptr %2, align 8
  %4 = getelementptr inbounds nuw %"class.std::__shared_ptr.244", ptr %3, i32 0, i32 0
  %5 = load ptr, ptr %4, align 8, !tbaa !1158
  ret ptr %5
}

; Function Attrs: mustprogress nounwind uwtable
define linkonce_odr void @_ZN5arrow6StatusC2Ev(ptr noundef nonnull align 8 dereferenceable(8) %0) unnamed_addr #0 comdat align 2 {
  %2 = alloca ptr, align 8
  store ptr %0, ptr %2, align 8, !tbaa !129
  %3 = load ptr, ptr %2, align 8
  %4 = getelementptr inbounds nuw %"class.arrow::Status", ptr %3, i32 0, i32 0
  store ptr null, ptr %4, align 8, !tbaa !131
  ret void
}

; Function Attrs: mustprogress nounwind uwtable
define linkonce_odr void @_ZN5arrow6StatusD2Ev(ptr noundef nonnull align 8 dereferenceable(8) %0) unnamed_addr #0 comdat align 2 {
  %2 = alloca ptr, align 8
  store ptr %0, ptr %2, align 8, !tbaa !129
  %3 = load ptr, ptr %2, align 8
  %4 = getelementptr inbounds nuw %"class.arrow::Status", ptr %3, i32 0, i32 0
  %5 = load ptr, ptr %4, align 8, !tbaa !131
  %6 = icmp ne ptr %5, null
  %7 = xor i1 %6, true
  %8 = xor i1 %7, true
  %9 = zext i1 %8 to i64
  %10 = call i64 @llvm.expect.i64(i64 %9, i64 0)
  %11 = icmp ne i64 %10, 0
  br i1 %11, label %12, label %20

12:                                               ; preds = %1
  %13 = getelementptr inbounds nuw %"class.arrow::Status", ptr %3, i32 0, i32 0
  %14 = load ptr, ptr %13, align 8, !tbaa !131
  %15 = getelementptr inbounds nuw %"struct.arrow::Status::State", ptr %14, i32 0, i32 1
  %16 = load i8, ptr %15, align 1, !tbaa !136, !range !59, !noundef !60
  %17 = trunc i8 %16 to i1
  br i1 %17, label %19, label %18

18:                                               ; preds = %12
  call void @_ZN5arrow6Status11DeleteStateEv(ptr noundef nonnull align 8 dereferenceable(8) %3) #20
  br label %19

19:                                               ; preds = %18, %12
  br label %20

20:                                               ; preds = %19, %1
  call void @_ZN5arrow4util19ToStringOstreamableINS_6StatusEED2Ev(ptr noundef nonnull align 1 dereferenceable(1) %3) #20
  call void @_ZN5arrow4util18EqualityComparableINS_6StatusEED2Ev(ptr noundef nonnull align 1 dereferenceable(1) %3) #20
  ret void
}

; Function Attrs: mustprogress uwtable
define internal void @_ZN5arrow12_GLOBAL__N_19PrintDiffERKNS_5ArrayES3_PSo(ptr dead_on_unwind noalias writable sret(%"class.arrow::Status") align 8 %0, ptr noundef nonnull align 8 dereferenceable(32) %1, ptr noundef nonnull align 8 dereferenceable(32) %2, ptr noundef %3) #1 {
  %5 = alloca ptr, align 8
  %6 = alloca ptr, align 8
  %7 = alloca ptr, align 8
  %8 = alloca ptr, align 8
  store ptr %0, ptr %5, align 8
  store ptr %1, ptr %6, align 8, !tbaa !53
  store ptr %2, ptr %7, align 8, !tbaa !53
  store ptr %3, ptr %8, align 8, !tbaa !170
  %9 = load ptr, ptr %6, align 8, !tbaa !53
  %10 = load ptr, ptr %7, align 8, !tbaa !53
  %11 = load ptr, ptr %6, align 8, !tbaa !53
  %12 = call noundef i64 @_ZNK5arrow5Array6lengthEv(ptr noundef nonnull align 8 dereferenceable(32) %11)
  %13 = load ptr, ptr %7, align 8, !tbaa !53
  %14 = call noundef i64 @_ZNK5arrow5Array6lengthEv(ptr noundef nonnull align 8 dereferenceable(32) %13)
  %15 = load ptr, ptr %8, align 8, !tbaa !170
  call void @_ZN5arrow12_GLOBAL__N_19PrintDiffERKNS_5ArrayES3_llllPSo(ptr dead_on_unwind writable sret(%"class.arrow::Status") align 8 %0, ptr noundef nonnull align 8 dereferenceable(32) %9, ptr noundef nonnull align 8 dereferenceable(32) %10, i64 noundef 0, i64 noundef %12, i64 noundef 0, i64 noundef %14, ptr noundef %15)
  ret void
}

; Function Attrs: mustprogress nounwind uwtable
define linkonce_odr noundef ptr @_ZNK5arrow12EqualOptions9diff_sinkEv(ptr noundef nonnull align 8 dereferenceable(24) %0) #0 comdat align 2 {
  %2 = alloca ptr, align 8
  store ptr %0, ptr %2, align 8, !tbaa !55
  %3 = load ptr, ptr %2, align 8
  %4 = getelementptr inbounds nuw %"class.arrow::EqualOptions", ptr %3, i32 0, i32 3
  %5 = load ptr, ptr %4, align 8, !tbaa !179
  ret ptr %5
}

; Function Attrs: mustprogress nounwind uwtable
define linkonce_odr noundef i64 @_ZNK5arrow5Array6lengthEv(ptr noundef nonnull align 8 dereferenceable(32) %0) #0 comdat align 2 {
  %2 = alloca ptr, align 8
  store ptr %0, ptr %2, align 8, !tbaa !53
  %3 = load ptr, ptr %2, align 8
  %4 = getelementptr inbounds nuw %"class.arrow::Array", ptr %3, i32 0, i32 1
  %5 = call noundef ptr @_ZNKSt19__shared_ptr_accessIN5arrow9ArrayDataELN9__gnu_cxx12_Lock_policyE2ELb0ELb0EEptEv(ptr noundef nonnull align 1 dereferenceable(1) %4) #20
  %6 = getelementptr inbounds nuw %"struct.arrow::ArrayData", ptr %5, i32 0, i32 1
  %7 = load i64, ptr %6, align 8, !tbaa !149
  ret i64 %7
}

; Function Attrs: mustprogress nounwind uwtable
define linkonce_odr noundef ptr @_ZNKSt19__shared_ptr_accessIN5arrow5ArrayELN9__gnu_cxx12_Lock_policyE2ELb0ELb0EE6_M_getEv(ptr noundef nonnull align 1 dereferenceable(1) %0) #0 comdat align 2 {
  %2 = alloca ptr, align 8
  store ptr %0, ptr %2, align 8, !tbaa !1129
  %3 = load ptr, ptr %2, align 8
  %4 = call noundef ptr @_ZNKSt12__shared_ptrIN5arrow5ArrayELN9__gnu_cxx12_Lock_policyE2EE3getEv(ptr noundef nonnull align 8 dereferenceable(16) %3) #20
  ret ptr %4
}

; Function Attrs: mustprogress nounwind uwtable
define linkonce_odr void @_ZN5arrow6Status2OKEv(ptr dead_on_unwind noalias writable sret(%"class.arrow::Status") align 8 %0) #0 comdat align 2 {
  %2 = alloca ptr, align 8
  store ptr %0, ptr %2, align 8
  call void @_ZN5arrow6StatusC2Ev(ptr noundef nonnull align 8 dereferenceable(8) %0) #20
  ret void
}

; Function Attrs: mustprogress uwtable
define internal noundef zeroext i1 @_ZN5arrow12_GLOBAL__N_111ArrayEqualsERKNS_5ArrayES3_RKNS_12EqualOptionsEb(ptr noundef nonnull align 8 dereferenceable(32) %0, ptr noundef nonnull align 8 dereferenceable(32) %1, ptr noundef nonnull align 8 dereferenceable(24) %2, i1 noundef zeroext %3) #1 {
  %5 = alloca i1, align 1
  %6 = alloca ptr, align 8
  %7 = alloca ptr, align 8
  %8 = alloca ptr, align 8
  %9 = alloca i8, align 1
  %10 = alloca %"class.arrow::Status", align 8
  store ptr %0, ptr %6, align 8, !tbaa !53
  store ptr %1, ptr %7, align 8, !tbaa !53
  store ptr %2, ptr %8, align 8, !tbaa !55
  %11 = zext i1 %3 to i8
  store i8 %11, ptr %9, align 1, !tbaa !57
  %12 = load ptr, ptr %6, align 8, !tbaa !53
  %13 = call noundef i64 @_ZNK5arrow5Array6lengthEv(ptr noundef nonnull align 8 dereferenceable(32) %12)
  %14 = load ptr, ptr %7, align 8, !tbaa !53
  %15 = call noundef i64 @_ZNK5arrow5Array6lengthEv(ptr noundef nonnull align 8 dereferenceable(32) %14)
  %16 = icmp ne i64 %13, %15
  br i1 %16, label %17, label %22

17:                                               ; preds = %4
  %18 = load ptr, ptr %6, align 8, !tbaa !53
  %19 = load ptr, ptr %7, align 8, !tbaa !53
  %20 = load ptr, ptr %8, align 8, !tbaa !55
  %21 = call noundef ptr @_ZNK5arrow12EqualOptions9diff_sinkEv(ptr noundef nonnull align 8 dereferenceable(24) %20)
  call void @_ZN5arrow12_GLOBAL__N_19PrintDiffERKNS_5ArrayES3_PSo(ptr dead_on_unwind writable sret(%"class.arrow::Status") align 8 %10, ptr noundef nonnull align 8 dereferenceable(32) %18, ptr noundef nonnull align 8 dereferenceable(32) %19, ptr noundef %21)
  call void @_ZN5arrow6StatusD2Ev(ptr noundef nonnull align 8 dereferenceable(8) %10) #20
  store i1 false, ptr %5, align 1
  br label %31

22:                                               ; preds = %4
  %23 = load ptr, ptr %6, align 8, !tbaa !53
  %24 = load ptr, ptr %7, align 8, !tbaa !53
  %25 = load ptr, ptr %6, align 8, !tbaa !53
  %26 = call noundef i64 @_ZNK5arrow5Array6lengthEv(ptr noundef nonnull align 8 dereferenceable(32) %25)
  %27 = load ptr, ptr %8, align 8, !tbaa !55
  %28 = load i8, ptr %9, align 1, !tbaa !57, !range !59, !noundef !60
  %29 = trunc i8 %28 to i1
  %30 = call noundef zeroext i1 @_ZN5arrow12_GLOBAL__N_116ArrayRangeEqualsERKNS_5ArrayES3_lllRKNS_12EqualOptionsEb(ptr noundef nonnull align 8 dereferenceable(32) %23, ptr noundef nonnull align 8 dereferenceable(32) %24, i64 noundef 0, i64 noundef %26, i64 noundef 0, ptr noundef nonnull align 8 dereferenceable(24) %27, i1 noundef zeroext %29)
  store i1 %30, ptr %5, align 1
  br label %31

31:                                               ; preds = %22, %17
  %32 = load i1, ptr %5, align 1
  ret i1 %32
}

; Function Attrs: mustprogress nounwind uwtable
define linkonce_odr noundef nonnull align 8 dereferenceable(32) ptr @_ZNKSt19__shared_ptr_accessIN5arrow5ArrayELN9__gnu_cxx12_Lock_policyE2ELb0ELb0EEdeEv(ptr noundef nonnull align 1 dereferenceable(1) %0) #0 comdat align 2 {
  %2 = alloca ptr, align 8
  store ptr %0, ptr %2, align 8, !tbaa !1129
  %3 = load ptr, ptr %2, align 8
  br label %4

4:                                                ; preds = %1
  br label %5

5:                                                ; preds = %4
  br label %6

6:                                                ; preds = %5
  %7 = call noundef ptr @_ZNKSt19__shared_ptr_accessIN5arrow5ArrayELN9__gnu_cxx12_Lock_policyE2ELb0ELb0EE6_M_getEv(ptr noundef nonnull align 1 dereferenceable(1) %3) #20
  ret ptr %7
}

; Function Attrs: inlinehint mustprogress nounwind uwtable
define linkonce_odr noundef nonnull align 8 dereferenceable(80) ptr @_ZN5arrow8internal12checked_castIRKNS_9MapScalarERKNS_6ScalarEEET_OT0_(ptr noundef nonnull align 8 dereferenceable(41) %0) #5 comdat {
  %2 = alloca ptr, align 8
  store ptr %0, ptr %2, align 8, !tbaa !61
  %3 = load ptr, ptr %2, align 8, !tbaa !61
  ret ptr %3
}

; Function Attrs: mustprogress uwtable
define internal void @_ZN5arrow12_GLOBAL__N_119ScalarEqualsVisitor5VisitERKNS_9MapScalarE(ptr dead_on_unwind noalias writable sret(%"class.arrow::Status") align 8 %0, ptr noundef nonnull align 8 dereferenceable(34) %1, ptr noundef nonnull align 8 dereferenceable(80) %2) #1 align 2 {
  %4 = alloca ptr, align 8
  %5 = alloca ptr, align 8
  %6 = alloca ptr, align 8
  %7 = alloca ptr, align 8
  store ptr %0, ptr %4, align 8
  store ptr %1, ptr %5, align 8, !tbaa !1191
  store ptr %2, ptr %6, align 8, !tbaa !1309
  %8 = load ptr, ptr %5, align 8
  call void @llvm.lifetime.start.p0(i64 8, ptr %7) #20
  %9 = getelementptr inbounds nuw %"class.arrow::(anonymous namespace)::ScalarEqualsVisitor", ptr %8, i32 0, i32 0
  %10 = load ptr, ptr %9, align 8, !tbaa !1201
  %11 = call noundef nonnull align 8 dereferenceable(80) ptr @_ZN5arrow8internal12checked_castIRKNS_9MapScalarERKNS_6ScalarEEET_OT0_(ptr noundef nonnull align 8 dereferenceable(41) %10)
  store ptr %11, ptr %7, align 8, !tbaa !1309
  %12 = load ptr, ptr %6, align 8, !tbaa !1309
  %13 = getelementptr inbounds nuw %"struct.arrow::BaseListScalar", ptr %12, i32 0, i32 1
  %14 = call noundef nonnull align 8 dereferenceable(32) ptr @_ZNKSt19__shared_ptr_accessIN5arrow5ArrayELN9__gnu_cxx12_Lock_policyE2ELb0ELb0EEdeEv(ptr noundef nonnull align 1 dereferenceable(1) %13) #20
  %15 = load ptr, ptr %7, align 8, !tbaa !1309
  %16 = getelementptr inbounds nuw %"struct.arrow::BaseListScalar", ptr %15, i32 0, i32 1
  %17 = call noundef nonnull align 8 dereferenceable(32) ptr @_ZNKSt19__shared_ptr_accessIN5arrow5ArrayELN9__gnu_cxx12_Lock_policyE2ELb0ELb0EEdeEv(ptr noundef nonnull align 1 dereferenceable(1) %16) #20
  %18 = getelementptr inbounds nuw %"class.arrow::(anonymous namespace)::ScalarEqualsVisitor", ptr %8, i32 0, i32 1
  %19 = getelementptr inbounds nuw %"class.arrow::(anonymous namespace)::ScalarEqualsVisitor", ptr %8, i32 0, i32 2
  %20 = load i8, ptr %19, align 8, !tbaa !1194, !range !59, !noundef !60
  %21 = trunc i8 %20 to i1
  %22 = call noundef zeroext i1 @_ZN5arrow12_GLOBAL__N_111ArrayEqualsERKNS_5ArrayES3_RKNS_12EqualOptionsEb(ptr noundef nonnull align 8 dereferenceable(32) %14, ptr noundef nonnull align 8 dereferenceable(32) %17, ptr noundef nonnull align 8 dereferenceable(24) %18, i1 noundef zeroext %21)
  %23 = getelementptr inbounds nuw %"class.arrow::(anonymous namespace)::ScalarEqualsVisitor", ptr %8, i32 0, i32 3
  %24 = zext i1 %22 to i8
  store i8 %24, ptr %23, align 1, !tbaa !1196
  call void @_ZN5arrow6Status2OKEv(ptr dead_on_unwind writable sret(%"class.arrow::Status") align 8 %0)
  call void @llvm.lifetime.end.p0(i64 8, ptr %7) #20
  ret void
}